; Function Attrs: nounwind uwtable
define noundef i32 @Llb_NonlinReoHook(ptr noundef %0, ptr noundef readnone captures(none) %1, ptr noundef readnone captures(none) %2) local_unnamed_addr #0 {
  %4 = getelementptr inbounds nuw i8, ptr %0, i64 736
  %5 = load ptr, ptr %4, align 8, !tbaa !74
  %6 = tail call i32 (ptr, ...) @printf(ptr noundef nonnull dereferenceable(1) @.str.12)
  %7 = tail call i32 @Cudd_ReadSize(ptr noundef %0) #19
  %8 = icmp sgt i32 %7, 0
  br i1 %8, label %.lr.ph, label %._crit_edge

.lr.ph:                                           ; preds = %3
  %9 = getelementptr i8, ptr %5, i64 32
  %10 = getelementptr i8, ptr %5, i64 112
  %11 = getelementptr i8, ptr %5, i64 108
  %12 = getelementptr inbounds nuw i8, ptr %0, i64 312
  br label %13

13:                                               ; preds = %.lr.ph, %Aig_ManObj.exit.thread
  %indvars.iv = phi i64 [ 0, %.lr.ph ], [ %indvars.iv.next, %Aig_ManObj.exit.thread ]
  %.val = load ptr, ptr %9, align 8, !tbaa !36
  %.not.i = icmp eq ptr %.val, null
  br i1 %.not.i, label %Aig_ManObj.exit.thread, label %Aig_ManObj.exit

Aig_ManObj.exit:                                  ; preds = %13
  %14 = getelementptr i8, ptr %.val, i64 8
  %.val.i = load ptr, ptr %14, align 8, !tbaa !26
  %15 = getelementptr inbounds nuw ptr, ptr %.val.i, i64 %indvars.iv
  %16 = load ptr, ptr %15, align 8, !tbaa !28
  %17 = icmp eq ptr %16, null
  br i1 %17, label %Aig_ManObj.exit.thread, label %18

18:                                               ; preds = %Aig_ManObj.exit
  %19 = getelementptr i8, ptr %16, i64 24
  %.val3.i = load i64, ptr %19, align 8
  %20 = and i64 %.val3.i, 7
  switch i64 %20, label %Aig_ManObj.exit.thread [
    i64 2, label %Saig_ObjIsPi.exit
    i64 3, label %Saig_ObjIsPo.exit
  ]

Saig_ObjIsPi.exit:                                ; preds = %18
  %.val4.i = load i32, ptr %16, align 8, !tbaa !75
  %.val.i22 = load i32, ptr %11, align 4, !tbaa !25
  %.not = icmp slt i32 %.val4.i, %.val.i22
  %.str.13..str.14 = select i1 %.not, ptr @.str.13, ptr @.str.14
  br label %21

Saig_ObjIsPo.exit:                                ; preds = %18
  %.val3.i29 = load i32, ptr %16, align 8, !tbaa !75
  %.val.i30 = load i32, ptr %10, align 8, !tbaa !47
  %.not48 = icmp slt i32 %.val3.i29, %.val.i30
  %.str.15..str.16 = select i1 %.not48, ptr @.str.15, ptr @.str.16
  br label %21

21:                                               ; preds = %Saig_ObjIsPo.exit, %Saig_ObjIsPi.exit
  %.str.14.sink = phi ptr [ %.str.13..str.14, %Saig_ObjIsPi.exit ], [ %.str.15..str.16, %Saig_ObjIsPo.exit ]
  %22 = tail call i32 (ptr, ...) @printf(ptr noundef nonnull dereferenceable(1) %.str.14.sink)
  %23 = load ptr, ptr %12, align 8, !tbaa !86
  %24 = getelementptr inbounds nuw i32, ptr %23, i64 %indvars.iv
  %25 = load i32, ptr %24, align 4, !tbaa !48
  %26 = trunc nuw nsw i64 %indvars.iv to i32
  %27 = tail call i32 (ptr, ...) @printf(ptr noundef nonnull dereferenceable(1) @.str.17, i32 noundef %26, i32 noundef %25)
  br label %Aig_ManObj.exit.thread

Aig_ManObj.exit.thread:                           ; preds = %18, %13, %Aig_ManObj.exit, %21
  %indvars.iv.next = add nuw nsw i64 %indvars.iv, 1
  %28 = tail call i32 @Cudd_ReadSize(ptr noundef %0) #19
  %29 = sext i32 %28 to i64
  %30 = icmp slt i64 %indvars.iv.next, %29
  br i1 %30, label %13, label %._crit_edge, !llvm.loop !87

._crit_edge:                                      ; preds = %Aig_ManObj.exit.thread, %3
  %putchar = tail call i32 @putchar(i32 10)
  ret i32 1
}